target datalayout = "e-m:e-p270:32:32-p271:32:32-p272:64:64-i64:64-i128:128-f80:128-n8:16:32:64-S128"
target triple = "x86_64-pc-linux-gnu"

%"class.cv::bioinspired::RetinaColor" = type <{ ptr, %"class.cv::bioinspired::BasicRetinaFilter", i32, i8, [3 x i8], float, [4 x i8], ptr, ptr, %"class.std::valarray.0", %"class.std::valarray", %"class.std::valarray", %"class.std::valarray", %"class.std::valarray", %"class.std::valarray", %"class.std::valarray", %"class.std::valarray", float, float, float, i8, [3 x i8] }>
%"class.cv::bioinspired::BasicRetinaFilter" = type { %"class.cv::bioinspired::TemplateBuffer", %"class.std::valarray", i32, i32, %"class.std::valarray", %"class.std::valarray", %"class.std::valarray", float, float, float, float, float, float, float, float }
%"class.cv::bioinspired::TemplateBuffer" = type { ptr, %"class.std::valarray", i64, i64, i64, i64, i64 }
%"class.std::valarray.0" = type { i64, ptr }
%"class.std::valarray" = type { i64, ptr }

; Function Attrs: inlinehint mustprogress nounwind uwtable
define linkonce_odr hidden noundef i32 @_ZN2cv11bioinspired14TemplateBufferIfE11getNBpixelsEv(ptr noundef nonnull align 8 dereferenceable(64) %0) #7 comdat align 2 {
  %2 = alloca ptr, align 8
  store ptr %0, ptr %2, align 8, !tbaa !56
  %3 = load ptr, ptr %2, align 8
  %4 = getelementptr inbounds nuw %"class.cv::bioinspired::TemplateBuffer", ptr %3, i32 0, i32 5
  %5 = load i64, ptr %4, align 8, !tbaa !58
  %6 = trunc i64 %5 to i32
  ret i32 %6
}

; Function Attrs: inlinehint mustprogress nounwind uwtable
define linkonce_odr hidden noundef nonnull align 4 dereferenceable(4) ptr @_ZNSt8valarrayIfEixEm(ptr noundef nonnull align 8 dereferenceable(16) %0, i64 noundef %1) #7 comdat align 2 {
  %3 = alloca ptr, align 8
  %4 = alloca i64, align 8
  store ptr %0, ptr %3, align 8, !tbaa !36
  store i64 %1, ptr %4, align 8, !tbaa !33
  %5 = load ptr, ptr %3, align 8
  %6 = getelementptr inbounds nuw %"class.std::valarray", ptr %5, i32 0, i32 1
  %7 = load ptr, ptr %6, align 8, !tbaa !38
  %8 = load i64, ptr %4, align 8, !tbaa !33
  %9 = getelementptr inbounds nuw float, ptr %7, i64 %8
  ret ptr %9
}

; Function Attrs: inlinehint mustprogress nounwind uwtable
define linkonce_odr hidden noundef i32 @_ZN2cv11bioinspired14TemplateBufferIfE12getNBcolumnsEv(ptr noundef nonnull align 8 dereferenceable(64) %0) #7 comdat align 2 {
  %2 = alloca ptr, align 8
  store ptr %0, ptr %2, align 8, !tbaa !56
  %3 = load ptr, ptr %2, align 8
  %4 = getelementptr inbounds nuw %"class.cv::bioinspired::TemplateBuffer", ptr %3, i32 0, i32 3
  %5 = load i64, ptr %4, align 8, !tbaa !57
  %6 = trunc i64 %5 to i32
  ret i32 %6
}

; Function Attrs: inlinehint mustprogress nounwind uwtable
define linkonce_odr hidden noundef i32 @_ZN2cv11bioinspired14TemplateBufferIfE9getNBrowsEv(ptr noundef nonnull align 8 dereferenceable(64) %0) #7 comdat align 2 {
  %2 = alloca ptr, align 8
  store ptr %0, ptr %2, align 8, !tbaa !56
  %3 = load ptr, ptr %2, align 8
  %4 = getelementptr inbounds nuw %"class.cv::bioinspired::TemplateBuffer", ptr %3, i32 0, i32 2
  %5 = load i64, ptr %4, align 8, !tbaa !73
  %6 = trunc i64 %5 to i32
  ret i32 %6
}

; Function Attrs: mustprogress uwtable
define hidden void @_ZN2cv11bioinspired11RetinaColor15_applyRIFfilterEPKfPf(ptr noundef nonnull align 8 dereferenceable(349) %0, ptr noundef %1, ptr noundef %2) #4 align 2 {
  %4 = alloca ptr, align 8
  %5 = alloca ptr, align 8
  %6 = alloca ptr, align 8
  %7 = alloca i32, align 4
  %8 = alloca i32, align 4
  %9 = alloca i32, align 4
  %10 = alloca i32, align 4
  store ptr %0, ptr %4, align 8, !tbaa !3
  store ptr %1, ptr %5, align 8, !tbaa !39
  store ptr %2, ptr %6, align 8, !tbaa !39
  %11 = load ptr, ptr %4, align 8
  call void @llvm.lifetime.start.p0(i64 4, ptr %7) #3
  store i32 1, ptr %7, align 4, !tbaa !8
  br label %12

12:                                               ; preds = %95, %3
  %13 = load i32, ptr %7, align 4, !tbaa !8
  %14 = getelementptr inbounds i8, ptr %11, i64 8
  %15 = getelementptr inbounds nuw %"class.cv::bioinspired::BasicRetinaFilter", ptr %14, i32 0, i32 0
  %16 = call noundef i32 @_ZN2cv11bioinspired14TemplateBufferIfE9getNBrowsEv(ptr noundef nonnull align 8 dereferenceable(64) %15)
  %17 = sub i32 %16, 1
  %18 = icmp ult i32 %13, %17
  br i1 %18, label %20, label %19

19:                                               ; preds = %12
  store i32 2, ptr %8, align 4
  call void @llvm.lifetime.end.p0(i64 4, ptr %7) #3
  br label %98

20:                                               ; preds = %12
  call void @llvm.lifetime.start.p0(i64 4, ptr %9) #3
  store i32 1, ptr %9, align 4, !tbaa !8
  br label %21

21:                                               ; preds = %91, %20
  %22 = load i32, ptr %9, align 4, !tbaa !8
  %23 = getelementptr inbounds i8, ptr %11, i64 8
  %24 = getelementptr inbounds nuw %"class.cv::bioinspired::BasicRetinaFilter", ptr %23, i32 0, i32 0
  %25 = call noundef i32 @_ZN2cv11bioinspired14TemplateBufferIfE12getNBcolumnsEv(ptr noundef nonnull align 8 dereferenceable(64) %24)
  %26 = sub i32 %25, 1
  %27 = icmp ult i32 %22, %26
  br i1 %27, label %29, label %28

28:                                               ; preds = %21
  store i32 5, ptr %8, align 4
  call void @llvm.lifetime.end.p0(i64 4, ptr %9) #3
  br label %94

29:                                               ; preds = %21
  call void @llvm.lifetime.start.p0(i64 4, ptr %10) #3
  %30 = load i32, ptr %9, align 4, !tbaa !8
  %31 = load i32, ptr %7, align 4, !tbaa !8
  %32 = getelementptr inbounds i8, ptr %11, i64 8
  %33 = getelementptr inbounds nuw %"class.cv::bioinspired::BasicRetinaFilter", ptr %32, i32 0, i32 0
  %34 = call noundef i32 @_ZN2cv11bioinspired14TemplateBufferIfE12getNBcolumnsEv(ptr noundef nonnull align 8 dereferenceable(64) %33)
  %35 = mul i32 %31, %34
  %36 = add i32 %30, %35
  store i32 %36, ptr %10, align 4, !tbaa !8
  %37 = load ptr, ptr %5, align 8, !tbaa !39
  %38 = load i32, ptr %10, align 4, !tbaa !8
  %39 = zext i32 %38 to i64
  %40 = getelementptr inbounds nuw float, ptr %37, i64 %39
  %41 = load float, ptr %40, align 4, !tbaa !30
  %42 = load ptr, ptr %5, align 8, !tbaa !39
  %43 = load i32, ptr %10, align 4, !tbaa !8
  %44 = sub i32 %43, 1
  %45 = getelementptr inbounds i8, ptr %11, i64 8
  %46 = getelementptr inbounds nuw %"class.cv::bioinspired::BasicRetinaFilter", ptr %45, i32 0, i32 0
  %47 = call noundef i32 @_ZN2cv11bioinspired14TemplateBufferIfE12getNBcolumnsEv(ptr noundef nonnull align 8 dereferenceable(64) %46)
  %48 = sub i32 %44, %47
  %49 = zext i32 %48 to i64
  %50 = getelementptr inbounds nuw float, ptr %42, i64 %49
  %51 = load float, ptr %50, align 4, !tbaa !30
  %52 = call float @llvm.fmuladd.f32(float 4.000000e+00, float %41, float %51)
  %53 = load ptr, ptr %5, align 8, !tbaa !39
  %54 = load i32, ptr %10, align 4, !tbaa !8
  %55 = sub i32 %54, 1
  %56 = getelementptr inbounds i8, ptr %11, i64 8
  %57 = getelementptr inbounds nuw %"class.cv::bioinspired::BasicRetinaFilter", ptr %56, i32 0, i32 0
  %58 = call noundef i32 @_ZN2cv11bioinspired14TemplateBufferIfE12getNBcolumnsEv(ptr noundef nonnull align 8 dereferenceable(64) %57)
  %59 = add i32 %55, %58
  %60 = zext i32 %59 to i64
  %61 = getelementptr inbounds nuw float, ptr %53, i64 %60
  %62 = load float, ptr %61, align 4, !tbaa !30
  %63 = fadd float %52, %62
  %64 = load ptr, ptr %5, align 8, !tbaa !39
  %65 = load i32, ptr %10, align 4, !tbaa !8
  %66 = add i32 %65, 1
  %67 = getelementptr inbounds i8, ptr %11, i64 8
  %68 = getelementptr inbounds nuw %"class.cv::bioinspired::BasicRetinaFilter", ptr %67, i32 0, i32 0
  %69 = call noundef i32 @_ZN2cv11bioinspired14TemplateBufferIfE12getNBcolumnsEv(ptr noundef nonnull align 8 dereferenceable(64) %68)
  %70 = sub i32 %66, %69
  %71 = zext i32 %70 to i64
  %72 = getelementptr inbounds nuw float, ptr %64, i64 %71
  %73 = load float, ptr %72, align 4, !tbaa !30
  %74 = fadd float %63, %73
  %75 = load ptr, ptr %5, align 8, !tbaa !39
  %76 = load i32, ptr %10, align 4, !tbaa !8
  %77 = add i32 %76, 1
  %78 = getelementptr inbounds i8, ptr %11, i64 8
  %79 = getelementptr inbounds nuw %"class.cv::bioinspired::BasicRetinaFilter", ptr %78, i32 0, i32 0
  %80 = call noundef i32 @_ZN2cv11bioinspired14TemplateBufferIfE12getNBcolumnsEv(ptr noundef nonnull align 8 dereferenceable(64) %79)
  %81 = add i32 %77, %80
  %82 = zext i32 %81 to i64
  %83 = getelementptr inbounds nuw float, ptr %75, i64 %82
  %84 = load float, ptr %83, align 4, !tbaa !30
  %85 = fadd float %74, %84
  %86 = fmul float %85, 1.250000e-01
  %87 = getelementptr inbounds nuw %"class.cv::bioinspired::RetinaColor", ptr %11, i32 0, i32 11
  %88 = load i32, ptr %10, align 4, !tbaa !8
  %89 = zext i32 %88 to i64
  %90 = call noundef nonnull align 4 dereferenceable(4) ptr @_ZNSt8valarrayIfEixEm(ptr noundef nonnull align 8 dereferenceable(16) %87, i64 noundef %89) #3
  store float %86, ptr %90, align 4, !tbaa !30
  call void @llvm.lifetime.end.p0(i64 4, ptr %10) #3
  br label %91

91:                                               ; preds = %29
  %92 = load i32, ptr %9, align 4, !tbaa !8
  %93 = add i32 %92, 1
  store i32 %93, ptr %9, align 4, !tbaa !8
  br label %21, !llvm.loop !109

94:                                               ; preds = %28
  br label %95

95:                                               ; preds = %94
  %96 = load i32, ptr %7, align 4, !tbaa !8
  %97 = add i32 %96, 1
  store i32 %97, ptr %7, align 4, !tbaa !8
  br label %12, !llvm.loop !110

98:                                               ; preds = %19
  %99 = load ptr, ptr %6, align 8, !tbaa !39
  %100 = getelementptr inbounds nuw %"class.cv::bioinspired::RetinaColor", ptr %11, i32 0, i32 11
  %101 = call noundef nonnull align 4 dereferenceable(4) ptr @_ZNSt8valarrayIfEixEm(ptr noundef nonnull align 8 dereferenceable(16) %100, i64 noundef 0) #3
  %102 = getelementptr inbounds i8, ptr %11, i64 8
  %103 = getelementptr inbounds nuw %"class.cv::bioinspired::BasicRetinaFilter", ptr %102, i32 0, i32 0
  %104 = call noundef i32 @_ZN2cv11bioinspired14TemplateBufferIfE11getNBpixelsEv(ptr noundef nonnull align 8 dereferenceable(64) %103)
  %105 = zext i32 %104 to i64
  %106 = mul i64 4, %105
  call void @llvm.memcpy.p0.p0.i64(ptr align 4 %99, ptr align 4 %101, i64 %106, i1 false)
  ret void
}