; Function Attrs: mustprogress nofree norecurse nosync nounwind memory(readwrite, inaccessiblemem: none) uwtable
define hidden void @_ZN2cv11bioinspired11RetinaColor15_applyRIFfilterEPKfPf(ptr noundef nonnull readonly align 8 captures(none) dereferenceable(349) %0, ptr noundef readonly captures(none) %1, ptr noundef writeonly captures(none) %2) local_unnamed_addr #9 align 2 {
  %4 = getelementptr inbounds nuw i8, ptr %0, i64 32
  %5 = load i64, ptr %4, align 8, !tbaa !150
  %6 = trunc i64 %5 to i32
  %7 = add i32 %6, -1
  %8 = icmp ugt i32 %7, 1
  br i1 %8, label %.preheader.lr.ph, label %.._crit_edge23_crit_edge

.._crit_edge23_crit_edge:                         ; preds = %3
  %.phi.trans.insert = getelementptr inbounds nuw i8, ptr %0, i64 248
  %.pre = load ptr, ptr %.phi.trans.insert, align 8, !tbaa !16
  br label %._crit_edge23

.preheader.lr.ph:                                 ; preds = %3
  %9 = getelementptr inbounds nuw i8, ptr %0, i64 40
  %10 = load i64, ptr %9, align 8, !tbaa !62
  %11 = trunc i64 %10 to i32
  %12 = add i32 %11, -1
  %invariant.op19 = add i32 %11, 1
  %13 = icmp ugt i32 %12, 1
  %14 = getelementptr inbounds nuw i8, ptr %0, i64 248
  %15 = load ptr, ptr %14, align 8
  br i1 %13, label %.preheader.us.preheader, label %._crit_edge23

.preheader.us.preheader:                          ; preds = %.preheader.lr.ph
  %wide.trip.count = zext i32 %12 to i64
  %16 = xor i32 %11, -1
  br label %.preheader.us

.preheader.us:                                    ; preds = %.preheader.us.preheader, %._crit_edge.us
  %.022.us = phi i32 [ %45, %._crit_edge.us ], [ 1, %.preheader.us.preheader ]
  %17 = mul i32 %.022.us, %11
  br label %18

18:                                               ; preds = %.preheader.us, %18
  %indvars.iv = phi i64 [ 1, %.preheader.us ], [ %indvars.iv.next, %18 ]
  %19 = trunc nuw i64 %indvars.iv to i32
  %20 = add i32 %17, %19
  %21 = zext i32 %20 to i64
  %22 = getelementptr inbounds nuw float, ptr %1, i64 %21
  %23 = load float, ptr %22, align 4, !tbaa !31
  %24 = add i32 %20, %16
  %25 = zext i32 %24 to i64
  %26 = getelementptr inbounds nuw float, ptr %1, i64 %25
  %27 = load float, ptr %26, align 4, !tbaa !31
  %28 = tail call float @llvm.fmuladd.f32(float %23, float 4.000000e+00, float %27)
  %.reass.us = add i32 %20, %12
  %29 = zext i32 %.reass.us to i64
  %30 = getelementptr inbounds nuw float, ptr %1, i64 %29
  %31 = load float, ptr %30, align 4, !tbaa !31
  %32 = fadd float %28, %31
  %33 = add i32 %20, 1
  %34 = sub i32 %33, %11
  %35 = zext i32 %34 to i64
  %36 = getelementptr inbounds nuw float, ptr %1, i64 %35
  %37 = load float, ptr %36, align 4, !tbaa !31
  %38 = fadd float %32, %37
  %.reass20.us = add i32 %20, %invariant.op19
  %39 = zext i32 %.reass20.us to i64
  %40 = getelementptr inbounds nuw float, ptr %1, i64 %39
  %41 = load float, ptr %40, align 4, !tbaa !31
  %42 = fadd float %38, %41
  %43 = fmul float %42, 1.250000e-01
  %44 = getelementptr inbounds nuw float, ptr %15, i64 %21
  store float %43, ptr %44, align 4, !tbaa !31
  %indvars.iv.next = add nuw nsw i64 %indvars.iv, 1
  %exitcond.not = icmp eq i64 %indvars.iv.next, %wide.trip.count
  br i1 %exitcond.not, label %._crit_edge.us, label %18, !llvm.loop !201

._crit_edge.us:                                   ; preds = %18
  %45 = add nuw i32 %.022.us, 1
  %exitcond26.not = icmp eq i32 %45, %7
  br i1 %exitcond26.not, label %._crit_edge23, label %.preheader.us, !llvm.loop !202

._crit_edge23:                                    ; preds = %._crit_edge.us, %.preheader.lr.ph, %.._crit_edge23_crit_edge
  %46 = phi ptr [ %.pre, %.._crit_edge23_crit_edge ], [ %15, %.preheader.lr.ph ], [ %15, %._crit_edge.us ]
  %47 = getelementptr inbounds nuw i8, ptr %0, i64 56
  %48 = load i64, ptr %47, align 8, !tbaa !61
  %49 = shl i64 %48, 2
  %50 = and i64 %49, 17179869180
  tail call void @llvm.memcpy.p0.p0.i64(ptr align 4 %2, ptr nonnull align 4 %46, i64 %50, i1 false)
  ret void
}